; Function Attrs: mustprogress nounwind uwtable
define dso_local noundef i64 @_ZN5clang4Sema19AtomicOpsOverloadedENS_12ActionResultIPNS_4ExprELb1EEENS_10AtomicExpr8AtomicOpE(ptr noundef nonnull align 8 dereferenceable(17560) %0, i64 %1, i32 noundef %2) local_unnamed_addr #0 align 2 {
  %4 = and i64 %1, -2
  %5 = inttoptr i64 %4 to ptr
  %6 = load i32, ptr %5, align 8
  %7 = lshr i32 %6, 24
  %8 = zext nneg i32 %7 to i64
  %9 = getelementptr inbounds i8, ptr %5, i64 %8
  %10 = load ptr, ptr %9, align 8
  %11 = tail call noundef ptr @_ZN5clang4Expr16IgnoreParenCastsEv(ptr noundef nonnull align 8 dereferenceable(16) %10) #26
  %12 = getelementptr inbounds i8, ptr %9, i64 8
  %13 = lshr i32 %6, 18
  %14 = and i32 %13, 1
  %15 = zext nneg i32 %14 to i64
  %16 = getelementptr inbounds ptr, ptr %12, i64 %15
  %17 = getelementptr inbounds nuw i8, ptr %5, i64 16
  %18 = load i32, ptr %17, align 8
  %19 = zext i32 %18 to i64
  %20 = tail call i32 @_ZNK5clang8CallExpr11getBeginLocEv(ptr noundef nonnull align 8 dereferenceable(24) %5) #26
  %21 = tail call i32 @_ZNK5clang8CallExpr9getEndLocEv(ptr noundef nonnull align 8 dereferenceable(24) %5) #26
  %22 = tail call i64 @_ZNK5clang4Stmt14getSourceRangeEv(ptr noundef nonnull align 8 dereferenceable(8) %11) #26
  %23 = getelementptr inbounds nuw i8, ptr %5, i64 20
  %.sroa.0.0.copyload.i = load i32, ptr %23, align 4
  %.sroa.2.0.insert.ext = zext i32 %21 to i64
  %.sroa.2.0.insert.shift = shl nuw i64 %.sroa.2.0.insert.ext, 32
  %.sroa.0.0.insert.ext = zext i32 %20 to i64
  %.sroa.0.0.insert.insert = or disjoint i64 %.sroa.2.0.insert.shift, %.sroa.0.0.insert.ext
  %24 = tail call i64 @_ZN5clang4Sema15BuildAtomicExprENS_11SourceRangeES1_NS_14SourceLocationEN4llvm15MutableArrayRefIPNS_4ExprEEENS_10AtomicExpr8AtomicOpENS0_19AtomicArgumentOrderE(ptr noundef nonnull align 8 dereferenceable(17560) %0, i64 %.sroa.0.0.insert.insert, i64 %22, i32 %.sroa.0.0.copyload.i, ptr nonnull %16, i64 %19, i32 noundef %2, i32 noundef 0)
  ret i64 %24
}